; Function Attrs: mustprogress uwtable
define hidden void @_ZN3smt10theory_lra9new_eq_ehEii(ptr noundef nonnull readonly align 8 captures(none) dereferenceable(72) %0, i32 noundef %1, i32 noundef %2) unnamed_addr #4 align 2 {
  %4 = getelementptr inbounds nuw i8, ptr %0, i64 64
  %5 = load ptr, ptr %4, align 8, !tbaa !506
  %6 = load ptr, ptr %5, align 8, !tbaa !664
  %7 = getelementptr inbounds nuw i8, ptr %6, i64 32
  %8 = load ptr, ptr %7, align 8, !tbaa !663
  %9 = zext i32 %1 to i64
  %10 = getelementptr inbounds nuw ptr, ptr %8, i64 %9
  %11 = load ptr, ptr %10, align 8, !tbaa !737
  %12 = load ptr, ptr %11, align 8, !tbaa !738
  %13 = tail call noundef ptr @_ZNK4expr8get_sortEv(ptr noundef nonnull align 4 dereferenceable(16) %12)
  %14 = getelementptr inbounds nuw i8, ptr %13, i64 24
  %15 = load ptr, ptr %14, align 8, !tbaa !724
  %16 = icmp eq ptr %15, null
  br i1 %16, label %_ZNK3smt10theory_lra3imp6is_intEi.exit.thread.i, label %_ZNK4decl13get_family_idEv.exit.thread.i.i.i.i.i.i.i

_ZNK4decl13get_family_idEv.exit.thread.i.i.i.i.i.i.i: ; preds = %3
  %17 = load i32, ptr %15, align 8, !tbaa !727
  %18 = icmp eq i32 %17, 5
  br i1 %18, label %_ZNK3smt10theory_lra3imp6is_intEi.exit.i, label %_ZNK3smt10theory_lra3imp6is_intEi.exit.thread.i

_ZNK3smt10theory_lra3imp6is_intEi.exit.i:         ; preds = %_ZNK4decl13get_family_idEv.exit.thread.i.i.i.i.i.i.i
  %19 = getelementptr inbounds nuw i8, ptr %15, i64 4
  %20 = load i32, ptr %19, align 4, !tbaa !747
  %21 = icmp eq i32 %20, 1
  br i1 %21, label %37, label %_ZNK3smt10theory_lra3imp6is_intEi.exit.thread.i

_ZNK3smt10theory_lra3imp6is_intEi.exit.thread.i:  ; preds = %_ZNK3smt10theory_lra3imp6is_intEi.exit.i, %_ZNK4decl13get_family_idEv.exit.thread.i.i.i.i.i.i.i, %3
  %22 = load ptr, ptr %5, align 8, !tbaa !664
  %23 = getelementptr inbounds nuw i8, ptr %22, i64 32
  %24 = load ptr, ptr %23, align 8, !tbaa !663
  %25 = getelementptr inbounds nuw ptr, ptr %24, i64 %9
  %26 = load ptr, ptr %25, align 8, !tbaa !737
  %27 = load ptr, ptr %26, align 8, !tbaa !738
  %28 = tail call noundef ptr @_ZNK4expr8get_sortEv(ptr noundef nonnull align 4 dereferenceable(16) %27)
  %29 = getelementptr inbounds nuw i8, ptr %28, i64 24
  %30 = load ptr, ptr %29, align 8, !tbaa !724
  %31 = icmp eq ptr %30, null
  br i1 %31, label %_ZN3smt10theory_lra3imp9new_eq_ehEii.exit, label %_ZNK4decl13get_family_idEv.exit.thread.i.i.i.i.i.i4.i

_ZNK4decl13get_family_idEv.exit.thread.i.i.i.i.i.i4.i: ; preds = %_ZNK3smt10theory_lra3imp6is_intEi.exit.thread.i
  %32 = load i32, ptr %30, align 8, !tbaa !727
  %33 = icmp eq i32 %32, 5
  br i1 %33, label %_ZNK3smt10theory_lra3imp7is_realEi.exit.i, label %_ZN3smt10theory_lra3imp9new_eq_ehEii.exit

_ZNK3smt10theory_lra3imp7is_realEi.exit.i:        ; preds = %_ZNK4decl13get_family_idEv.exit.thread.i.i.i.i.i.i4.i
  %34 = getelementptr inbounds nuw i8, ptr %30, i64 4
  %35 = load i32, ptr %34, align 4, !tbaa !747
  %36 = icmp eq i32 %35, 0
  br i1 %36, label %37, label %_ZN3smt10theory_lra3imp9new_eq_ehEii.exit

37:                                               ; preds = %_ZNK3smt10theory_lra3imp7is_realEi.exit.i, %_ZNK3smt10theory_lra3imp6is_intEi.exit.i
  %38 = getelementptr inbounds nuw i8, ptr %5, i64 32
  tail call void @_ZN3smt16arith_eq_adapter9new_eq_ehEii(ptr noundef nonnull align 8 dereferenceable(64) %38, i32 noundef %1, i32 noundef %2)
  br label %_ZN3smt10theory_lra3imp9new_eq_ehEii.exit

_ZN3smt10theory_lra3imp9new_eq_ehEii.exit:        ; preds = %_ZNK3smt10theory_lra3imp6is_intEi.exit.thread.i, %_ZNK4decl13get_family_idEv.exit.thread.i.i.i.i.i.i4.i, %_ZNK3smt10theory_lra3imp7is_realEi.exit.i, %37
  ret void
}